target datalayout = "e-m:e-p270:32:32-p271:32:32-p272:64:64-i64:64-i128:128-f80:128-n8:16:32:64-S128"
target triple = "x86_64-pc-linux-gnu"

%"class.Assimp::LimitBoneWeightsProcess" = type <{ %"class.Assimp::BaseProcess", i32, i8, [3 x i8] }>
%"class.Assimp::BaseProcess" = type { ptr, ptr, ptr }

@.str.2 = private unnamed_addr constant [19 x i8] c"PP_LBW_MAX_WEIGHTS\00", align 1
@.str.3 = private unnamed_addr constant [36 x i8] c"AI_CONFIG_IMPORT_REMOVE_EMPTY_BONES\00", align 1

; Function Attrs: mustprogress uwtable
define void @_ZN6Assimp23LimitBoneWeightsProcess15SetupPropertiesEPKNS_8ImporterE(ptr noundef nonnull align 8 dereferenceable(29) %0, ptr noundef %1) unnamed_addr #2 align 2 {
  %3 = alloca ptr, align 8
  %4 = alloca ptr, align 8
  store ptr %0, ptr %3, align 8
  store ptr %1, ptr %4, align 8
  %5 = load ptr, ptr %3, align 8
  %6 = load ptr, ptr %4, align 8
  %7 = call noundef i32 @_ZNK6Assimp8Importer18GetPropertyIntegerEPKci(ptr noundef nonnull align 8 dereferenceable(8) %6, ptr noundef @.str.2, i32 noundef 4)
  %8 = getelementptr inbounds nuw %"class.Assimp::LimitBoneWeightsProcess", ptr %5, i32 0, i32 1
  store i32 %7, ptr %8, align 8
  %9 = load ptr, ptr %4, align 8
  %10 = call noundef i32 @_ZNK6Assimp8Importer18GetPropertyIntegerEPKci(ptr noundef nonnull align 8 dereferenceable(8) %9, ptr noundef @.str.3, i32 noundef 1)
  %11 = icmp ne i32 %10, 0
  %12 = getelementptr inbounds nuw %"class.Assimp::LimitBoneWeightsProcess", ptr %5, i32 0, i32 2
  %13 = zext i1 %11 to i8
  store i8 %13, ptr %12, align 4
  ret void
}