; Function Attrs: mustprogress uwtable
define void @_ZN6Assimp23LimitBoneWeightsProcess15SetupPropertiesEPKNS_8ImporterE(ptr noundef nonnull writeonly align 8 captures(none) dereferenceable(29) initializes((24, 29)) %0, ptr noundef nonnull %1) unnamed_addr #3 align 2 {
  %3 = tail call noundef i32 @_ZNK6Assimp8Importer18GetPropertyIntegerEPKci(ptr noundef nonnull align 8 dereferenceable(8) %1, ptr noundef nonnull @.str.2, i32 noundef 4)
  %4 = getelementptr inbounds nuw i8, ptr %0, i64 24
  store i32 %3, ptr %4, align 8
  %5 = tail call noundef i32 @_ZNK6Assimp8Importer18GetPropertyIntegerEPKci(ptr noundef nonnull align 8 dereferenceable(8) %1, ptr noundef nonnull @.str.3, i32 noundef 1)
  %6 = icmp ne i32 %5, 0
  %7 = getelementptr inbounds nuw i8, ptr %0, i64 28
  %8 = zext i1 %6 to i8
  store i8 %8, ptr %7, align 4
  ret void
}